target datalayout = "e-m:e-p270:32:32-p271:32:32-p272:64:64-i64:64-i128:128-f80:128-n8:16:32:64-S128"
target triple = "x86_64-unknown-linux-gnu"

%struct.tracer_flags = type { i32, ptr, ptr }
%struct.tracer = type { ptr, ptr, ptr, ptr, ptr, ptr, ptr, ptr, ptr, ptr, ptr, ptr, ptr, ptr, ptr, ptr, ptr, ptr, i32, i8, i8, i8 }
%struct.tracer_opt = type { ptr, i32 }

@.str = private unnamed_addr constant [4 x i8] c"nop\00", align 1
@nop_flags = internal global %struct.tracer_flags { i32 0, ptr @nop_opts, ptr null }, align 8
@nop_trace = dso_local local_unnamed_addr global %struct.tracer { ptr @.str, ptr @nop_trace_init, ptr @nop_trace_reset, ptr null, ptr null, ptr null, ptr null, ptr null, ptr null, ptr null, ptr null, ptr null, ptr null, ptr null, ptr @nop_set_flag, ptr null, ptr null, ptr @nop_flags, i32 0, i8 0, i8 1, i8 0 }, section ".data..read_mostly", align 8
@.str.1 = private unnamed_addr constant [86 x i8] c"\017nop_test_accept flag set to %d: we accept. Now cat trace_options to see the result\0A\00", align 1
@.str.2 = private unnamed_addr constant [86 x i8] c"\017nop_test_refuse flag set to %d: we refuse. Now cat trace_options to see the result\0A\00", align 1
@nop_opts = internal global [3 x %struct.tracer_opt] [%struct.tracer_opt { ptr @.str.3, i32 1 }, %struct.tracer_opt { ptr @.str.4, i32 2 }, %struct.tracer_opt zeroinitializer], align 16
@.str.3 = private unnamed_addr constant [16 x i8] c"test_nop_accept\00", align 1
@.str.4 = private unnamed_addr constant [16 x i8] c"test_nop_refuse\00", align 1

; Function Attrs: fn_ret_thunk_extern mustprogress nofree norecurse nosync nounwind null_pointer_is_valid willreturn memory(write, argmem: none, inaccessiblemem: none)
define internal noundef i32 @nop_trace_init(ptr noundef %0) #0 align 16 {
  ret i32 0
}

; Function Attrs: fn_ret_thunk_extern mustprogress nofree norecurse nosync nounwind null_pointer_is_valid willreturn memory(none)
define internal void @nop_trace_reset(ptr nocapture readnone %0) #1 align 16 {
  ret void
}

; Function Attrs: fn_ret_thunk_extern nounwind null_pointer_is_valid
define internal noundef i32 @nop_set_flag(ptr nocapture readnone %0, i32 %1, i32 noundef %2, i32 noundef %3) #2 align 16 {
  switch i32 %2, label %10 [
    i32 1, label %6
    i32 2, label %5
  ]

5:                                                ; preds = %4
  br label %6

6:                                                ; preds = %5, %4
  %7 = phi ptr [ @.str.2, %5 ], [ @.str.1, %4 ]
  %8 = phi i32 [ -22, %5 ], [ 0, %4 ]
  %9 = tail call i32 (ptr, ...) @_printk(ptr noundef nonnull %7, i32 noundef %3) #4
  br label %10

10:                                               ; preds = %6, %4
  %11 = phi i32 [ 0, %4 ], [ %8, %6 ]
  ret i32 %11
}

; Function Attrs: cold null_pointer_is_valid
declare dso_local i32 @_printk(ptr noundef, ...) local_unnamed_addr #3


!llvm.module.flags = !{!0, !1, !2, !3, !4}

!0 = !{i32 1, !"wchar_size", i32 2}
!1 = !{i32 8, !"cf-protection-branch", i32 1}
!2 = !{i32 4, !"function_return_thunk_extern", i32 1}
!3 = !{i32 4, !"indirect_branch_cs_prefix", i32 1}
!4 = !{i32 4, !"SkipRaxSetup", i32 1}
